;--------------------------------------------------------
; File Created by SDCC : free open source ANSI-C Compiler
; Version 3.6.6 #9917 (MSVC)
;--------------------------------------------------------
; Processed by Z88DK
;--------------------------------------------------------
	
	EXTERN __divschar
	EXTERN __divschar_callee
	EXTERN __divsint
	EXTERN __divsint_callee
	EXTERN __divslong
	EXTERN __divslong_callee
	EXTERN __divslonglong
	EXTERN __divslonglong_callee
	EXTERN __divsuchar
	EXTERN __divsuchar_callee
	EXTERN __divuchar
	EXTERN __divuchar_callee
	EXTERN __divuint
	EXTERN __divuint_callee
	EXTERN __divulong
	EXTERN __divulong_callee
	EXTERN __divulonglong
	EXTERN __divulonglong_callee
	EXTERN __divuschar
	EXTERN __divuschar_callee
	EXTERN __modschar
	EXTERN __modschar_callee
	EXTERN __modsint
	EXTERN __modsint_callee
	EXTERN __modslong
	EXTERN __modslong_callee
	EXTERN __modslonglong
	EXTERN __modslonglong_callee
	EXTERN __modsuchar
	EXTERN __modsuchar_callee
	EXTERN __moduchar
	EXTERN __moduchar_callee
	EXTERN __moduint
	EXTERN __moduint_callee
	EXTERN __modulong
	EXTERN __modulong_callee
	EXTERN __modulonglong
	EXTERN __modulonglong_callee
	EXTERN __moduschar
	EXTERN __moduschar_callee
	EXTERN __mulint
	EXTERN __mulint_callee
	EXTERN __mullong
	EXTERN __mullong_callee
	EXTERN __mullonglong
	EXTERN __mullonglong_callee
	EXTERN __mulschar
	EXTERN __mulschar_callee
	EXTERN __mulsuchar
	EXTERN __mulsuchar_callee
	EXTERN __muluschar
	EXTERN __muluschar_callee
	EXTERN __rlslonglong
	EXTERN __rlslonglong_callee
	EXTERN __rlulonglong
	EXTERN __rlulonglong_callee
	EXTERN __rrslonglong
	EXTERN __rrslonglong_callee
	EXTERN __rrulonglong
	EXTERN __rrulonglong_callee
	EXTERN ___sdcc_call_hl
	EXTERN ___sdcc_call_iy
	EXTERN ___sdcc_enter_ix
	EXTERN _banked_call
	EXTERN _banked_ret
	EXTERN ___fs2schar
	EXTERN ___fs2schar_callee
	EXTERN ___fs2sint
	EXTERN ___fs2sint_callee
	EXTERN ___fs2slong
	EXTERN ___fs2slong_callee
	EXTERN ___fs2slonglong
	EXTERN ___fs2slonglong_callee
	EXTERN ___fs2uchar
	EXTERN ___fs2uchar_callee
	EXTERN ___fs2uint
	EXTERN ___fs2uint_callee
	EXTERN ___fs2ulong
	EXTERN ___fs2ulong_callee
	EXTERN ___fs2ulonglong
	EXTERN ___fs2ulonglong_callee
	EXTERN ___fsadd
	EXTERN ___fsadd_callee
	EXTERN ___fsdiv
	EXTERN ___fsdiv_callee
	EXTERN ___fseq
	EXTERN ___fseq_callee
	EXTERN ___fsgt
	EXTERN ___fsgt_callee
	EXTERN ___fslt
	EXTERN ___fslt_callee
	EXTERN ___fsmul
	EXTERN ___fsmul_callee
	EXTERN ___fsneq
	EXTERN ___fsneq_callee
	EXTERN ___fssub
	EXTERN ___fssub_callee
	EXTERN ___schar2fs
	EXTERN ___schar2fs_callee
	EXTERN ___sint2fs
	EXTERN ___sint2fs_callee
	EXTERN ___slong2fs
	EXTERN ___slong2fs_callee
	EXTERN ___slonglong2fs
	EXTERN ___slonglong2fs_callee
	EXTERN ___uchar2fs
	EXTERN ___uchar2fs_callee
	EXTERN ___uint2fs
	EXTERN ___uint2fs_callee
	EXTERN ___ulong2fs
	EXTERN ___ulong2fs_callee
	EXTERN ___ulonglong2fs
	EXTERN ___ulonglong2fs_callee
	EXTERN ____sdcc_2_copy_src_mhl_dst_deix
	EXTERN ____sdcc_2_copy_src_mhl_dst_bcix
	EXTERN ____sdcc_4_copy_src_mhl_dst_deix
	EXTERN ____sdcc_4_copy_src_mhl_dst_bcix
	EXTERN ____sdcc_4_copy_src_mhl_dst_mbc
	EXTERN ____sdcc_4_ldi_nosave_bc
	EXTERN ____sdcc_4_ldi_save_bc
	EXTERN ____sdcc_4_push_hlix
	EXTERN ____sdcc_4_push_mhl
	EXTERN ____sdcc_lib_setmem_hl
	EXTERN ____sdcc_ll_add_de_bc_hl
	EXTERN ____sdcc_ll_add_de_bc_hlix
	EXTERN ____sdcc_ll_add_de_hlix_bc
	EXTERN ____sdcc_ll_add_de_hlix_bcix
	EXTERN ____sdcc_ll_add_deix_bc_hl
	EXTERN ____sdcc_ll_add_deix_hlix
	EXTERN ____sdcc_ll_add_hlix_bc_deix
	EXTERN ____sdcc_ll_add_hlix_deix_bc
	EXTERN ____sdcc_ll_add_hlix_deix_bcix
	EXTERN ____sdcc_ll_asr_hlix_a
	EXTERN ____sdcc_ll_asr_mbc_a
	EXTERN ____sdcc_ll_copy_src_de_dst_hlix
	EXTERN ____sdcc_ll_copy_src_de_dst_hlsp
	EXTERN ____sdcc_ll_copy_src_deix_dst_hl
	EXTERN ____sdcc_ll_copy_src_deix_dst_hlix
	EXTERN ____sdcc_ll_copy_src_deixm_dst_hlsp
	EXTERN ____sdcc_ll_copy_src_desp_dst_hlsp
	EXTERN ____sdcc_ll_copy_src_hl_dst_de
	EXTERN ____sdcc_ll_copy_src_hlsp_dst_de
	EXTERN ____sdcc_ll_copy_src_hlsp_dst_deixm
	EXTERN ____sdcc_ll_lsl_hlix_a
	EXTERN ____sdcc_ll_lsl_mbc_a
	EXTERN ____sdcc_ll_lsr_hlix_a
	EXTERN ____sdcc_ll_lsr_mbc_a
	EXTERN ____sdcc_ll_push_hlix
	EXTERN ____sdcc_ll_push_mhl
	EXTERN ____sdcc_ll_sub_de_bc_hl
	EXTERN ____sdcc_ll_sub_de_bc_hlix
	EXTERN ____sdcc_ll_sub_de_hlix_bc
	EXTERN ____sdcc_ll_sub_de_hlix_bcix
	EXTERN ____sdcc_ll_sub_deix_bc_hl
	EXTERN ____sdcc_ll_sub_deix_hlix
	EXTERN ____sdcc_ll_sub_hlix_bc_deix
	EXTERN ____sdcc_ll_sub_hlix_deix_bc
	EXTERN ____sdcc_ll_sub_hlix_deix_bcix
	EXTERN ____sdcc_load_debc_deix
	EXTERN ____sdcc_load_dehl_deix
	EXTERN ____sdcc_load_debc_mhl
	EXTERN ____sdcc_load_hlde_mhl
	EXTERN ____sdcc_store_dehl_bcix
	EXTERN ____sdcc_store_debc_hlix
	EXTERN ____sdcc_store_debc_mhl
	EXTERN ____sdcc_cpu_pop_ei
	EXTERN ____sdcc_cpu_pop_ei_jp
	EXTERN ____sdcc_cpu_push_di
	
;--------------------------------------------------------
; Public variables in this module
;--------------------------------------------------------
	GLOBAL _main
	GLOBAL _drawStars
	GLOBAL _setUpStars
	GLOBAL _stars
;--------------------------------------------------------
; Externals used
;--------------------------------------------------------
	GLOBAL _intrinsic_swap_word_32_fastcall
	GLOBAL _intrinsic_swap_word_32
	GLOBAL _intrinsic_swap_endian_32_fastcall
	GLOBAL _intrinsic_swap_endian_32
	GLOBAL _intrinsic_swap_endian_16_fastcall
	GLOBAL _intrinsic_swap_endian_16
	GLOBAL _intrinsic_return_de
	GLOBAL _intrinsic_return_bc
	GLOBAL _intrinsic_exx
	GLOBAL _intrinsic_ex_de_hl
	GLOBAL _intrinsic_nop
	GLOBAL _intrinsic_im_2
	GLOBAL _intrinsic_im_1
	GLOBAL _intrinsic_im_0
	GLOBAL _intrinsic_retn
	GLOBAL _intrinsic_reti
	GLOBAL _intrinsic_halt
	GLOBAL _intrinsic_ei
	GLOBAL _intrinsic_di
	GLOBAL _intrinsic_stub
	GLOBAL _zx_pattern_fill_callee
	GLOBAL _zx_pattern_fill
	GLOBAL _zx_saddrpup_fastcall
	GLOBAL _zx_saddrpup
	GLOBAL _zx_saddrpright_callee
	GLOBAL _zx_saddrpright
	GLOBAL _zx_saddrpleft_callee
	GLOBAL _zx_saddrpleft
	GLOBAL _zx_saddrpdown_fastcall
	GLOBAL _zx_saddrpdown
	GLOBAL _zx_saddrcup_fastcall
	GLOBAL _zx_saddrcup
	GLOBAL _zx_saddrcright_fastcall
	GLOBAL _zx_saddrcright
	GLOBAL _zx_saddrcleft_fastcall
	GLOBAL _zx_saddrcleft
	GLOBAL _zx_saddrcdown_fastcall
	GLOBAL _zx_saddrcdown
	GLOBAL _zx_saddr2py_fastcall
	GLOBAL _zx_saddr2py
	GLOBAL _zx_saddr2px_fastcall
	GLOBAL _zx_saddr2px
	GLOBAL _zx_saddr2cy_fastcall
	GLOBAL _zx_saddr2cy
	GLOBAL _zx_saddr2cx_fastcall
	GLOBAL _zx_saddr2cx
	GLOBAL _zx_saddr2aaddr_fastcall
	GLOBAL _zx_saddr2aaddr
	GLOBAL _zx_py2saddr_fastcall
	GLOBAL _zx_py2saddr
	GLOBAL _zx_py2aaddr_fastcall
	GLOBAL _zx_py2aaddr
	GLOBAL _zx_pxy2saddr_callee
	GLOBAL _zx_pxy2saddr
	GLOBAL _zx_pxy2aaddr_callee
	GLOBAL _zx_pxy2aaddr
	GLOBAL _zx_px2bitmask_fastcall
	GLOBAL _zx_px2bitmask
	GLOBAL _zx_cy2saddr_fastcall
	GLOBAL _zx_cy2saddr
	GLOBAL _zx_cy2aaddr_fastcall
	GLOBAL _zx_cy2aaddr
	GLOBAL _zx_cxy2saddr_callee
	GLOBAL _zx_cxy2saddr
	GLOBAL _zx_cxy2aaddr_callee
	GLOBAL _zx_cxy2aaddr
	GLOBAL _zx_bitmask2px_fastcall
	GLOBAL _zx_bitmask2px
	GLOBAL _zx_aaddrcup_fastcall
	GLOBAL _zx_aaddrcup
	GLOBAL _zx_aaddrcright_fastcall
	GLOBAL _zx_aaddrcright
	GLOBAL _zx_aaddrcleft_fastcall
	GLOBAL _zx_aaddrcleft
	GLOBAL _zx_aaddrcdown_fastcall
	GLOBAL _zx_aaddrcdown
	GLOBAL _zx_aaddr2saddr_fastcall
	GLOBAL _zx_aaddr2saddr
	GLOBAL _zx_aaddr2py_fastcall
	GLOBAL _zx_aaddr2py
	GLOBAL _zx_aaddr2px_fastcall
	GLOBAL _zx_aaddr2px
	GLOBAL _zx_aaddr2cy_fastcall
	GLOBAL _zx_aaddr2cy
	GLOBAL _zx_aaddr2cx_fastcall
	GLOBAL _zx_aaddr2cx
	GLOBAL _zx_scroll_wc_up_callee
	GLOBAL _zx_scroll_wc_up
	GLOBAL _zx_scroll_up_callee
	GLOBAL _zx_scroll_up
	GLOBAL _zx_cls_wc_callee
	GLOBAL _zx_cls_wc
	GLOBAL _zx_cls_fastcall
	GLOBAL _zx_cls
	GLOBAL _zx_border_fastcall
	GLOBAL _zx_border
	GLOBAL _ulltoa_callee
	GLOBAL _ulltoa
	GLOBAL _strtoull_callee
	GLOBAL _strtoull
	GLOBAL _strtoll_callee
	GLOBAL _strtoll
	GLOBAL _lltoa_callee
	GLOBAL _lltoa
	GLOBAL _llabs_callee
	GLOBAL _llabs
	GLOBAL __lldivu__callee
	GLOBAL __lldivu_
	GLOBAL __lldiv__callee
	GLOBAL __lldiv_
	GLOBAL _atoll_callee
	GLOBAL _atoll
	GLOBAL _realloc_unlocked_callee
	GLOBAL _realloc_unlocked
	GLOBAL _malloc_unlocked_fastcall
	GLOBAL _malloc_unlocked
	GLOBAL _free_unlocked_fastcall
	GLOBAL _free_unlocked
	GLOBAL _calloc_unlocked_callee
	GLOBAL _calloc_unlocked
	GLOBAL _aligned_alloc_unlocked_callee
	GLOBAL _aligned_alloc_unlocked
	GLOBAL _realloc_callee
	GLOBAL _realloc
	GLOBAL _malloc_fastcall
	GLOBAL _malloc
	GLOBAL _free_fastcall
	GLOBAL _free
	GLOBAL _calloc_callee
	GLOBAL _calloc
	GLOBAL _aligned_alloc_callee
	GLOBAL _aligned_alloc
	GLOBAL _utoa_callee
	GLOBAL _utoa
	GLOBAL _ultoa_callee
	GLOBAL _ultoa
	GLOBAL _system_fastcall
	GLOBAL _system
	GLOBAL _strtoul_callee
	GLOBAL _strtoul
	GLOBAL _strtol_callee
	GLOBAL _strtol
	GLOBAL _strtof_callee
	GLOBAL _strtof
	GLOBAL _strtod_callee
	GLOBAL _strtod
	GLOBAL _srand_fastcall
	GLOBAL _srand
	GLOBAL _rand
	GLOBAL _quick_exit_fastcall
	GLOBAL _quick_exit
	GLOBAL _qsort_callee
	GLOBAL _qsort
	GLOBAL _ltoa_callee
	GLOBAL _ltoa
	GLOBAL _labs_fastcall
	GLOBAL _labs
	GLOBAL _itoa_callee
	GLOBAL _itoa
	GLOBAL _ftoh_callee
	GLOBAL _ftoh
	GLOBAL _ftog_callee
	GLOBAL _ftog
	GLOBAL _ftoe_callee
	GLOBAL _ftoe
	GLOBAL _ftoa_callee
	GLOBAL _ftoa
	GLOBAL _exit_fastcall
	GLOBAL _exit
	GLOBAL _dtoh_callee
	GLOBAL _dtoh
	GLOBAL _dtog_callee
	GLOBAL _dtog
	GLOBAL _dtoe_callee
	GLOBAL _dtoe
	GLOBAL _dtoa_callee
	GLOBAL _dtoa
	GLOBAL _bsearch_callee
	GLOBAL _bsearch
	GLOBAL _atol_fastcall
	GLOBAL _atol
	GLOBAL _atoi_fastcall
	GLOBAL _atoi
	GLOBAL _atof_fastcall
	GLOBAL _atof
	GLOBAL _atexit_fastcall
	GLOBAL _atexit
	GLOBAL _at_quick_exit_fastcall
	GLOBAL _at_quick_exit
	GLOBAL _abs_fastcall
	GLOBAL _abs
	GLOBAL _abort
	GLOBAL __strtou__callee
	GLOBAL __strtou_
	GLOBAL __strtoi__callee
	GLOBAL __strtoi_
	GLOBAL __random_uniform_xor_8__fastcall
	GLOBAL __random_uniform_xor_8_
	GLOBAL __random_uniform_xor_32__fastcall
	GLOBAL __random_uniform_xor_32_
	GLOBAL __random_uniform_cmwc_8__fastcall
	GLOBAL __random_uniform_cmwc_8_
	GLOBAL __shellsort__callee
	GLOBAL __shellsort_
	GLOBAL __quicksort__callee
	GLOBAL __quicksort_
	GLOBAL __insertion_sort__callee
	GLOBAL __insertion_sort_
	GLOBAL __ldivu__callee
	GLOBAL __ldivu_
	GLOBAL __ldiv__callee
	GLOBAL __ldiv_
	GLOBAL __divu__callee
	GLOBAL __divu_
	GLOBAL __div__callee
	GLOBAL __div_
	GLOBAL _GLOBAL_ZX_PORT_7FFD
	GLOBAL _GLOBAL_ZX_PORT_1FFD
	GLOBAL _GLOBAL_ZX_PORT_FE
;--------------------------------------------------------
; special function registers
;--------------------------------------------------------
defc _IO_FE	=	0x00fe
defc _IO_1FFD	=	0x1ffd
defc _IO_7FFD	=	0x7ffd
;--------------------------------------------------------
; ram data
;--------------------------------------------------------
	SECTION bss_compiler
_stars:
	DEFS 240
;--------------------------------------------------------
; ram data
;--------------------------------------------------------
	
IF 0
	
; .area _INITIALIZED removed by z88dk
	
	
ENDIF
	
;--------------------------------------------------------
; absolute external ram data
;--------------------------------------------------------
	SECTION IGNORE
;--------------------------------------------------------
; global & static initialisations
;--------------------------------------------------------
	SECTION code_crt_init
;--------------------------------------------------------
; Home
;--------------------------------------------------------
	SECTION IGNORE
;--------------------------------------------------------
; code
;--------------------------------------------------------
	SECTION code_compiler
;stars.c:18: void setUpStars()
;	---------------------------------
; Function setUpStars
; ---------------------------------
_setUpStars:
	push	ix
	ld	ix,0
	add	ix,sp
	push	af
	push	af
;stars.c:20: struct Star *currentStar = stars;
	ld	bc,_stars
;stars.c:22: while (currentStar != stars + sizeof(stars) / sizeof(*stars))
l_setUpStars_00101:
	ld	a, c
	sub	a,+((_stars+0x00f0) & 0xFF)
	jr	NZ,l_setUpStars_00115
	ld	a, b
	sub	a,+((_stars+0x00f0) / 256)
	jp	Z,l_setUpStars_00104
l_setUpStars_00115:
;stars.c:24: currentStar->yAddress = zx_py2saddr(rand() % 191);
	push	bc
	call	_rand
	ld	de,0x00bf
	push	de
	push	hl
	call	__modsint_callee
	pop	bc
	call	_zx_py2saddr_fastcall
	ld	e,c
	ld	d,b
	ex	de,hl
	ld	(hl), e
	inc	hl
	ld	(hl), d
;stars.c:25: currentStar->x = rand() % 255;
	ld	hl,0x0002
	add	hl,bc
	ld	(ix-2),l
	ld	(ix-1),h
	push	bc
	call	_rand
	ld	de,0x00ff
	push	de
	push	hl
	call	__modsint_callee
	pop	bc
	ld	e,l
	ld	l,(ix-2)
	ld	h,(ix-1)
	ld	(hl), e
;stars.c:26: currentStar->speed = 1 + rand() % NUMLAYERS;
	ld	hl,0x0003
	add	hl,bc
	ex	(sp), hl
	push	bc
	call	_rand
	ld	de,0x0004
	push	de
	push	hl
	call	__modsint_callee
	pop	bc
	ld	e,l
	inc	e
	pop	hl
	push	hl
	ld	(hl), e
;stars.c:28: *(currentStar->yAddress + (currentStar->x >> 3)) ^= zx_px2bitmask(currentStar->x);
	ld	l, c
	ld	h, b
	ld	e, (hl)
	inc	hl
	ld	d, (hl)
	ld	l,(ix-2)
	ld	h,(ix-1)
	ld	a, (hl)
	ld	(ix-4),a
	ld	l, a
	srl	l
	srl	l
	srl	l
	ld	a, e
	add	a, l
	ld	e, a
	ld	a, d
	adc	a,0x00
	ld	d, a
	ld	a, (de)
	ld	(ix-2),a
	push	bc
	ld	l,(ix-4)
	call	_zx_px2bitmask_fastcall
	pop	bc
	ld	a,l
	xor	a,(ix-2)
	ld	(de), a
;stars.c:30: currentStar++;
	inc	bc
	inc	bc
	inc	bc
	inc	bc
	jp	l_setUpStars_00101
l_setUpStars_00104:
	ld	sp, ix
	pop	ix
	ret
	SECTION code_compiler
;stars.c:34: void drawStars()
;	---------------------------------
; Function drawStars
; ---------------------------------
_drawStars:
	push	ix
	ld	ix,0
	add	ix,sp
	push	af
	push	af
;stars.c:36: struct Star *currentStar = stars;
	ld	bc,_stars
;stars.c:38: while (currentStar != stars + sizeof(stars) / sizeof(*stars))
l_drawStars_00101:
	ld	a, c
	sub	a,+((_stars+0x00f0) & 0xFF)
	jr	NZ,l_drawStars_00115
	ld	a, b
	sub	a,+((_stars+0x00f0) / 256)
	jr	Z,l_drawStars_00104
l_drawStars_00115:
;stars.c:40: *(currentStar->yAddress + (currentStar->x >> 3)) ^= zx_px2bitmask(currentStar->x);
	ld	l, c
	ld	h, b
	ld	e, (hl)
	inc	hl
	ld	d, (hl)
	ld	hl,0x0002
	add	hl,bc
	ld	(ix-2),l
	ld	(ix-1),h
	ld	a, (hl)
	ld	(ix-4),a
	ld	l, a
	srl	l
	srl	l
	srl	l
	ld	a, e
	add	a, l
	ld	e, a
	ld	a, d
	adc	a,0x00
	ld	d, a
	ld	a, (de)
	ld	(ix-3),a
	push	bc
	ld	l,(ix-4)
	call	_zx_px2bitmask_fastcall
	pop	bc
	ld	a,l
	xor	a,(ix-3)
	ld	(de), a
;stars.c:41: currentStar->x -= currentStar->speed;
	ld	l,(ix-2)
	ld	h,(ix-1)
	ld	e, (hl)
	ld	l, c
	ld	h, b
	inc	hl
	inc	hl
	inc	hl
	ld	d, (hl)
	ld	a, e
	sub	a, d
	ld	(ix-3),a
	ld	l,(ix-2)
	ld	h,(ix-1)
	ld	a,(ix-3)
	ld	(hl), a
;stars.c:42: *(currentStar->yAddress + (currentStar->x >> 3)) ^= zx_px2bitmask(currentStar->x);
	ld	l, c
	ld	h, b
	ld	e, (hl)
	inc	hl
	ld	d, (hl)
	ld	l,(ix-3)
	srl	l
	srl	l
	srl	l
	ld	a, e
	add	a, l
	ld	e, a
	ld	a, d
	adc	a,0x00
	ld	d, a
	ld	a, (de)
	ld	(ix-4),a
	push	bc
	ld	l,(ix-3)
	call	_zx_px2bitmask_fastcall
	pop	bc
	ld	a,l
	xor	a,(ix-4)
	ld	(de), a
;stars.c:44: currentStar++;
	inc	bc
	inc	bc
	inc	bc
	inc	bc
	jp	l_drawStars_00101
l_drawStars_00104:
	ld	sp, ix
	pop	ix
	ret
	SECTION code_compiler
;stars.c:48: void main()
;	---------------------------------
; Function main
; ---------------------------------
_main:
;stars.c:50: intrinsic_ei();
	ei
;stars.c:53: zx_border(INK_BLACK);
	ld	l,0x00
	call	_zx_border_fastcall
;stars.c:54: zx_cls(INK_WHITE);
	ld	l,0x07
	call	_zx_cls_fastcall
;stars.c:56: setUpStars();
	call	_setUpStars
;stars.c:58: while (1)
l_main_00102:
;stars.c:60: zx_border(INK_CYAN);		
	ld	l,0x05
	call	_zx_border_fastcall
;stars.c:61: drawStars();
	call	_drawStars
;stars.c:62: zx_border(INK_BLACK);
	ld	l,0x00
	call	_zx_border_fastcall
;stars.c:63: intrinsic_halt();
	halt
	jr	l_main_00102
	SECTION IGNORE
